target datalayout = "e-m:e-p270:32:32-p271:32:32-p272:64:64-i64:64-i128:128-f80:128-n8:16:32:64-S128"
target triple = "x86_64-pc-linux-gnu"

%"class.pxrInternal_v0_24__pxrReserved__::GfMatrix2f" = type { %"class.pxrInternal_v0_24__pxrReserved__::GfMatrixData" }
%"class.pxrInternal_v0_24__pxrReserved__::GfMatrixData" = type { [4 x float] }

; Function Attrs: mustprogress nounwind uwtable
define linkonce_odr noundef ptr @_ZN32pxrInternal_v0_24__pxrReserved__12GfMatrixDataIfLi2ELi2EEixEi(ptr noundef nonnull align 4 dereferenceable(16) %0, i32 noundef %1) #2 comdat align 2 {
  %3 = alloca ptr, align 8
  %4 = alloca i32, align 4
  store ptr %0, ptr %3, align 8
  store i32 %1, ptr %4, align 4
  %5 = load ptr, ptr %3, align 8
  %6 = getelementptr inbounds nuw %"class.pxrInternal_v0_24__pxrReserved__::GfMatrixData", ptr %5, i32 0, i32 0
  %7 = getelementptr inbounds [4 x float], ptr %6, i64 0, i64 0
  %8 = load i32, ptr %4, align 4
  %9 = mul nsw i32 %8, 2
  %10 = sext i32 %9 to i64
  %11 = getelementptr inbounds float, ptr %7, i64 %10
  ret ptr %11
}

; Function Attrs: mustprogress uwtable
define linkonce_odr noundef nonnull align 4 dereferenceable(16) ptr @_ZN32pxrInternal_v0_24__pxrReserved__10GfMatrix2f3SetEffff(ptr noundef nonnull align 4 dereferenceable(16) %0, float noundef %1, float noundef %2, float noundef %3, float noundef %4) #0 comdat align 2 {
  %6 = alloca ptr, align 8
  %7 = alloca float, align 4
  %8 = alloca float, align 4
  %9 = alloca float, align 4
  %10 = alloca float, align 4
  store ptr %0, ptr %6, align 8
  store float %1, ptr %7, align 4
  store float %2, ptr %8, align 4
  store float %3, ptr %9, align 4
  store float %4, ptr %10, align 4
  %11 = load ptr, ptr %6, align 8
  %12 = load float, ptr %7, align 4
  %13 = getelementptr inbounds nuw %"class.pxrInternal_v0_24__pxrReserved__::GfMatrix2f", ptr %11, i32 0, i32 0
  %14 = call noundef ptr @_ZN32pxrInternal_v0_24__pxrReserved__12GfMatrixDataIfLi2ELi2EEixEi(ptr noundef nonnull align 4 dereferenceable(16) %13, i32 noundef 0)
  %15 = getelementptr inbounds float, ptr %14, i64 0
  store float %12, ptr %15, align 4
  %16 = load float, ptr %8, align 4
  %17 = getelementptr inbounds nuw %"class.pxrInternal_v0_24__pxrReserved__::GfMatrix2f", ptr %11, i32 0, i32 0
  %18 = call noundef ptr @_ZN32pxrInternal_v0_24__pxrReserved__12GfMatrixDataIfLi2ELi2EEixEi(ptr noundef nonnull align 4 dereferenceable(16) %17, i32 noundef 0)
  %19 = getelementptr inbounds float, ptr %18, i64 1
  store float %16, ptr %19, align 4
  %20 = load float, ptr %9, align 4
  %21 = getelementptr inbounds nuw %"class.pxrInternal_v0_24__pxrReserved__::GfMatrix2f", ptr %11, i32 0, i32 0
  %22 = call noundef ptr @_ZN32pxrInternal_v0_24__pxrReserved__12GfMatrixDataIfLi2ELi2EEixEi(ptr noundef nonnull align 4 dereferenceable(16) %21, i32 noundef 1)
  %23 = getelementptr inbounds float, ptr %22, i64 0
  store float %20, ptr %23, align 4
  %24 = load float, ptr %10, align 4
  %25 = getelementptr inbounds nuw %"class.pxrInternal_v0_24__pxrReserved__::GfMatrix2f", ptr %11, i32 0, i32 0
  %26 = call noundef ptr @_ZN32pxrInternal_v0_24__pxrReserved__12GfMatrixDataIfLi2ELi2EEixEi(ptr noundef nonnull align 4 dereferenceable(16) %25, i32 noundef 1)
  %27 = getelementptr inbounds float, ptr %26, i64 1
  store float %24, ptr %27, align 4
  ret ptr %11
}

; Function Attrs: mustprogress uwtable
define linkonce_odr void @_ZN32pxrInternal_v0_24__pxrReserved__10GfMatrix2fC2Effff(ptr noundef nonnull align 4 dereferenceable(16) %0, float noundef %1, float noundef %2, float noundef %3, float noundef %4) unnamed_addr #0 comdat align 2 {
  %6 = alloca ptr, align 8
  %7 = alloca float, align 4
  %8 = alloca float, align 4
  %9 = alloca float, align 4
  %10 = alloca float, align 4
  store ptr %0, ptr %6, align 8
  store float %1, ptr %7, align 4
  store float %2, ptr %8, align 4
  store float %3, ptr %9, align 4
  store float %4, ptr %10, align 4
  %11 = load ptr, ptr %6, align 8
  %12 = load float, ptr %7, align 4
  %13 = load float, ptr %8, align 4
  %14 = load float, ptr %9, align 4
  %15 = load float, ptr %10, align 4
  %16 = call noundef nonnull align 4 dereferenceable(16) ptr @_ZN32pxrInternal_v0_24__pxrReserved__10GfMatrix2f3SetEffff(ptr noundef nonnull align 4 dereferenceable(16) %11, float noundef %12, float noundef %13, float noundef %14, float noundef %15)
  ret void
}

; Function Attrs: mustprogress nounwind uwtable
define linkonce_odr noundef ptr @_ZNK32pxrInternal_v0_24__pxrReserved__12GfMatrixDataIfLi2ELi2EEixEi(ptr noundef nonnull align 4 dereferenceable(16) %0, i32 noundef %1) #2 comdat align 2 {
  %3 = alloca ptr, align 8
  %4 = alloca i32, align 4
  store ptr %0, ptr %3, align 8
  store i32 %1, ptr %4, align 4
  %5 = load ptr, ptr %3, align 8
  %6 = getelementptr inbounds nuw %"class.pxrInternal_v0_24__pxrReserved__::GfMatrixData", ptr %5, i32 0, i32 0
  %7 = getelementptr inbounds [4 x float], ptr %6, i64 0, i64 0
  %8 = load i32, ptr %4, align 4
  %9 = mul nsw i32 %8, 2
  %10 = sext i32 %9 to i64
  %11 = getelementptr inbounds float, ptr %7, i64 %10
  ret ptr %11
}

; Function Attrs: mustprogress uwtable
define { <2 x float>, <2 x float> } @_ZN32pxrInternal_v0_24__pxrReserved__ngERKNS_10GfMatrix2fE(ptr noundef nonnull align 4 dereferenceable(16) %0) #0 {
  %2 = alloca %"class.pxrInternal_v0_24__pxrReserved__::GfMatrix2f", align 4
  %3 = alloca ptr, align 8
  store ptr %0, ptr %3, align 8
  %4 = load ptr, ptr %3, align 8
  %5 = getelementptr inbounds nuw %"class.pxrInternal_v0_24__pxrReserved__::GfMatrix2f", ptr %4, i32 0, i32 0
  %6 = call noundef ptr @_ZNK32pxrInternal_v0_24__pxrReserved__12GfMatrixDataIfLi2ELi2EEixEi(ptr noundef nonnull align 4 dereferenceable(16) %5, i32 noundef 0)
  %7 = getelementptr inbounds float, ptr %6, i64 0
  %8 = load float, ptr %7, align 4
  %9 = fneg float %8
  %10 = load ptr, ptr %3, align 8
  %11 = getelementptr inbounds nuw %"class.pxrInternal_v0_24__pxrReserved__::GfMatrix2f", ptr %10, i32 0, i32 0
  %12 = call noundef ptr @_ZNK32pxrInternal_v0_24__pxrReserved__12GfMatrixDataIfLi2ELi2EEixEi(ptr noundef nonnull align 4 dereferenceable(16) %11, i32 noundef 0)
  %13 = getelementptr inbounds float, ptr %12, i64 1
  %14 = load float, ptr %13, align 4
  %15 = fneg float %14
  %16 = load ptr, ptr %3, align 8
  %17 = getelementptr inbounds nuw %"class.pxrInternal_v0_24__pxrReserved__::GfMatrix2f", ptr %16, i32 0, i32 0
  %18 = call noundef ptr @_ZNK32pxrInternal_v0_24__pxrReserved__12GfMatrixDataIfLi2ELi2EEixEi(ptr noundef nonnull align 4 dereferenceable(16) %17, i32 noundef 1)
  %19 = getelementptr inbounds float, ptr %18, i64 0
  %20 = load float, ptr %19, align 4
  %21 = fneg float %20
  %22 = load ptr, ptr %3, align 8
  %23 = getelementptr inbounds nuw %"class.pxrInternal_v0_24__pxrReserved__::GfMatrix2f", ptr %22, i32 0, i32 0
  %24 = call noundef ptr @_ZNK32pxrInternal_v0_24__pxrReserved__12GfMatrixDataIfLi2ELi2EEixEi(ptr noundef nonnull align 4 dereferenceable(16) %23, i32 noundef 1)
  %25 = getelementptr inbounds float, ptr %24, i64 1
  %26 = load float, ptr %25, align 4
  %27 = fneg float %26
  call void @_ZN32pxrInternal_v0_24__pxrReserved__10GfMatrix2fC2Effff(ptr noundef nonnull align 4 dereferenceable(16) %2, float noundef %9, float noundef %15, float noundef %21, float noundef %27)
  %28 = getelementptr inbounds nuw %"class.pxrInternal_v0_24__pxrReserved__::GfMatrix2f", ptr %2, i32 0, i32 0
  %29 = getelementptr inbounds nuw %"class.pxrInternal_v0_24__pxrReserved__::GfMatrixData", ptr %28, i32 0, i32 0
  %30 = load { <2 x float>, <2 x float> }, ptr %29, align 4
  ret { <2 x float>, <2 x float> } %30
}