; Function Attrs: mustprogress nofree norecurse nosync nounwind willreturn memory(argmem: read) uwtable
define { <2 x float>, <2 x float> } @_ZN32pxrInternal_v0_24__pxrReserved__ngERKNS_10GfMatrix2fE(ptr noundef nonnull readonly align 4 captures(none) dereferenceable(16) %0) local_unnamed_addr #6 {
  %2 = load float, ptr %0, align 4
  %3 = fneg float %2
  %4 = getelementptr inbounds nuw i8, ptr %0, i64 4
  %5 = load float, ptr %4, align 4
  %6 = fneg float %5
  %7 = getelementptr inbounds nuw i8, ptr %0, i64 8
  %8 = load float, ptr %7, align 4
  %9 = fneg float %8
  %10 = getelementptr inbounds nuw i8, ptr %0, i64 12
  %11 = load float, ptr %10, align 4
  %12 = fneg float %11
  %.sroa.0.0.vec.insert = insertelement <2 x float> poison, float %3, i64 0
  %.sroa.0.4.vec.insert = insertelement <2 x float> %.sroa.0.0.vec.insert, float %6, i64 1
  %.sroa.3.8.vec.insert = insertelement <2 x float> poison, float %9, i64 0
  %.sroa.3.12.vec.insert = insertelement <2 x float> %.sroa.3.8.vec.insert, float %12, i64 1
  %.fca.0.insert = insertvalue { <2 x float>, <2 x float> } poison, <2 x float> %.sroa.0.4.vec.insert, 0
  %.fca.1.insert = insertvalue { <2 x float>, <2 x float> } %.fca.0.insert, <2 x float> %.sroa.3.12.vec.insert, 1
  ret { <2 x float>, <2 x float> } %.fca.1.insert
}